; ModuleID = '19/3182.c'
source_filename = "19/3182.c"
target datalayout = "e-m:e-p270:32:32-p271:32:32-p272:64:64-i64:64-f80:128-n8:16:32:64-S128"
target triple = "x86_64-pc-linux-gnu"

@.str = private unnamed_addr constant [3 x i8] c"%s\00", align 1
@sentence = common dso_local global [100 x [100 x i8]] zeroinitializer, align 16
@a = common dso_local global [100 x i8] zeroinitializer, align 16
@b = common dso_local global [100 x i8] zeroinitializer, align 16
@.str.1 = private unnamed_addr constant [2 x i8] c" \00", align 1
@.str.2 = private unnamed_addr constant [2 x i8] c"\0A\00", align 1

; Function Attrs: noinline nounwind uwtable
define dso_local i32 @main() #0 {
  %1 = alloca i32, align 4
  %2 = alloca i32, align 4
  %3 = alloca i32, align 4
  store i32 0, i32* %1, align 4
  store i32 1, i32* %2, align 4
  br label %4

4:                                                ; preds = %11, %0
  %5 = load i32, i32* %2, align 4
  %6 = sext i32 %5 to i64
  %7 = getelementptr inbounds [100 x [100 x i8]], [100 x [100 x i8]]* @sentence, i64 0, i64 %6
  %8 = getelementptr inbounds [100 x i8], [100 x i8]* %7, i64 0, i64 0
  %9 = call i32 (i8*, ...) @__isoc99_scanf(i8* getelementptr inbounds ([3 x i8], [3 x i8]* @.str, i64 0, i64 0), i8* %8)
  %10 = icmp ne i32 %9, -1
  br i1 %10, label %11, label %14

11:                                               ; preds = %4
  %12 = load i32, i32* %2, align 4
  %13 = add nsw i32 %12, 1
  store i32 %13, i32* %2, align 4
  br label %4

14:                                               ; preds = %4
  %15 = load i32, i32* %2, align 4
  %16 = add nsw i32 %15, -1
  store i32 %16, i32* %2, align 4
  %17 = load i32, i32* %2, align 4
  %18 = sub nsw i32 %17, 1
  %19 = sext i32 %18 to i64
  %20 = getelementptr inbounds [100 x [100 x i8]], [100 x [100 x i8]]* @sentence, i64 0, i64 %19
  %21 = getelementptr inbounds [100 x i8], [100 x i8]* %20, i64 0, i64 0
  call void @llvm.memcpy.p0i8.p0i8.i64(i8* align 16 getelementptr inbounds ([100 x i8], [100 x i8]* @a, i64 0, i64 0), i8* align 4 %21, i64 100, i1 false)
  %22 = load i32, i32* %2, align 4
  %23 = sext i32 %22 to i64
  %24 = getelementptr inbounds [100 x [100 x i8]], [100 x [100 x i8]]* @sentence, i64 0, i64 %23
  %25 = getelementptr inbounds [100 x i8], [100 x i8]* %24, i64 0, i64 0
  call void @llvm.memcpy.p0i8.p0i8.i64(i8* align 16 getelementptr inbounds ([100 x i8], [100 x i8]* @b, i64 0, i64 0), i8* align 4 %25, i64 100, i1 false)
  store i32 1, i32* %3, align 4
  br label %26

26:                                               ; preds = %52, %14
  %27 = load i32, i32* %3, align 4
  %28 = load i32, i32* %2, align 4
  %29 = sub nsw i32 %28, 1
  %30 = icmp slt i32 %27, %29
  br i1 %30, label %31, label %55

31:                                               ; preds = %26
  %32 = load i32, i32* %3, align 4
  %33 = icmp ne i32 %32, 1
  br i1 %33, label %34, label %36

34:                                               ; preds = %31
  %35 = call i32 (i8*, ...) @printf(i8* getelementptr inbounds ([2 x i8], [2 x i8]* @.str.1, i64 0, i64 0))
  br label %36

36:                                               ; preds = %34, %31
  %37 = load i32, i32* %3, align 4
  %38 = sext i32 %37 to i64
  %39 = getelementptr inbounds [100 x [100 x i8]], [100 x [100 x i8]]* @sentence, i64 0, i64 %38
  %40 = getelementptr inbounds [100 x i8], [100 x i8]* %39, i64 0, i64 0
  %41 = call i32 @strcmp(i8* %40, i8* getelementptr inbounds ([100 x i8], [100 x i8]* @a, i64 0, i64 0)) #4
  %42 = icmp eq i32 %41, 0
  br i1 %42, label %43, label %45

43:                                               ; preds = %36
  %44 = call i32 (i8*, ...) @printf(i8* getelementptr inbounds ([3 x i8], [3 x i8]* @.str, i64 0, i64 0), i8* getelementptr inbounds ([100 x i8], [100 x i8]* @b, i64 0, i64 0))
  br label %51

45:                                               ; preds = %36
  %46 = load i32, i32* %3, align 4
  %47 = sext i32 %46 to i64
  %48 = getelementptr inbounds [100 x [100 x i8]], [100 x [100 x i8]]* @sentence, i64 0, i64 %47
  %49 = getelementptr inbounds [100 x i8], [100 x i8]* %48, i64 0, i64 0
  %50 = call i32 (i8*, ...) @printf(i8* getelementptr inbounds ([3 x i8], [3 x i8]* @.str, i64 0, i64 0), i8* %49)
  br label %51

51:                                               ; preds = %45, %43
  br label %52

52:                                               ; preds = %51
  %53 = load i32, i32* %3, align 4
  %54 = add nsw i32 %53, 1
  store i32 %54, i32* %3, align 4
  br label %26

55:                                               ; preds = %26
  %56 = call i32 (i8*, ...) @printf(i8* getelementptr inbounds ([2 x i8], [2 x i8]* @.str.2, i64 0, i64 0))
  ret i32 0
}

declare dso_local i32 @__isoc99_scanf(i8*, ...) #1

; Function Attrs: argmemonly nounwind willreturn
declare void @llvm.memcpy.p0i8.p0i8.i64(i8* noalias nocapture writeonly, i8* noalias nocapture readonly, i64, i1 immarg) #2

declare dso_local i32 @printf(i8*, ...) #1

; Function Attrs: nounwind readonly
declare dso_local i32 @strcmp(i8*, i8*) #3


!llvm.module.flags = !{!0}
!llvm.ident = !{!1}

!0 = !{i32 1, !"wchar_size", i32 4}
!1 = !{!"clang version 10.0.0-4ubuntu1 "}
